; Function Attrs: null_pointer_is_valid sspstrong uwtable
define hidden i32 @samr_dissect_struct_ValidatePasswordReq3(ptr noundef %0, i32 noundef %1, ptr noundef %2, ptr noundef %3, ptr noundef %4, ptr noundef %5, i32 noundef %6, i32 %7) local_unnamed_addr #0 {
  %9 = getelementptr inbounds nuw i8, ptr %4, i64 25
  %10 = load i8, ptr %9, align 1, !range !6, !noundef !7
  %11 = trunc nuw i8 %10 to i1
  %12 = and i32 %1, 7
  %.not = icmp eq i32 %12, 0
  %or.cond = or i1 %.not, %11
  %13 = and i32 %1, -8
  %14 = add i32 %13, 8
  %.0 = select i1 %or.cond, i32 %1, i32 %14
  %.not56 = icmp eq ptr %3, null
  br i1 %.not56, label %19, label %15

15:                                               ; preds = %8
  %16 = tail call ptr @proto_tree_add_item(ptr noundef nonnull %3, i32 noundef %6, ptr noundef %0, i32 noundef %.0, i32 noundef -1, i32 noundef 0)
  %17 = load i32, ptr @ett_samr_samr_ValidatePasswordReq3, align 4
  %18 = tail call ptr @proto_item_add_subtree(ptr noundef %16, i32 noundef %17)
  br label %19

19:                                               ; preds = %15, %8
  %.054 = phi ptr [ %16, %15 ], [ null, %8 ]
  %.053 = phi ptr [ %18, %15 ], [ null, %8 ]
  %20 = load i32, ptr @hf_samr_samr_ValidatePasswordReq3_info, align 4
  %21 = tail call i32 @samr_dissect_struct_ValidatePasswordInfo(ptr noundef %0, i32 noundef %.0, ptr noundef %2, ptr noundef %.053, ptr noundef %4, ptr noundef %5, i32 noundef %20, i32 poison)
  %22 = load i32, ptr @hf_samr_samr_ValidatePasswordReq3_password, align 4
  %23 = tail call i32 @dissect_ndr_lsa_String(ptr noundef %0, i32 noundef %21, ptr noundef %2, ptr noundef %.053, ptr noundef %4, ptr noundef %5, i32 noundef 0, i32 noundef %22)
  %24 = load i32, ptr @hf_samr_samr_ValidatePasswordReq3_account, align 4
  %25 = tail call i32 @dissect_ndr_lsa_String(ptr noundef %0, i32 noundef %23, ptr noundef %2, ptr noundef %.053, ptr noundef %4, ptr noundef %5, i32 noundef 0, i32 noundef %24)
  %26 = load i32, ptr @hf_samr_samr_ValidatePasswordReq3_hash, align 4
  %27 = tail call i32 @samr_dissect_struct_ValidationBlob(ptr noundef %0, i32 noundef %25, ptr noundef %2, ptr noundef %.053, ptr noundef %4, ptr noundef %5, i32 noundef %26, i32 poison)
  %28 = load i32, ptr @hf_samr_samr_ValidatePasswordReq3_pwd_must_change_at_next_logon, align 4
  %29 = tail call i32 @PIDL_dissect_uint8(ptr noundef %0, i32 noundef %27, ptr noundef %2, ptr noundef %.053, ptr noundef %4, ptr noundef %5, i32 noundef %28, i32 noundef 0)
  %30 = load i32, ptr @hf_samr_samr_ValidatePasswordReq3_clear_lockout, align 4
  %31 = tail call i32 @PIDL_dissect_uint8(ptr noundef %0, i32 noundef %29, ptr noundef %2, ptr noundef %.053, ptr noundef %4, ptr noundef %5, i32 noundef %30, i32 noundef 0)
  %32 = sub i32 %31, %.0
  tail call void @proto_item_set_len(ptr noundef %.054, i32 noundef %32)
  %33 = getelementptr inbounds nuw i8, ptr %4, i64 64
  %34 = load ptr, ptr %33, align 8
  %35 = getelementptr inbounds nuw i8, ptr %34, i64 96
  %36 = load i32, ptr %35, align 8
  %37 = and i32 %36, 1
  %.not57 = icmp eq i32 %37, 0
  br i1 %.not57, label %45, label %38

38:                                               ; preds = %19
  %39 = load i8, ptr %9, align 1, !range !6, !noundef !7
  %40 = trunc nuw i8 %39 to i1
  %41 = and i32 %31, 7
  %.not58 = icmp eq i32 %41, 0
  %or.cond59 = or i1 %.not58, %40
  br i1 %or.cond59, label %45, label %42

42:                                               ; preds = %38
  %43 = and i32 %31, -8
  %44 = add i32 %43, 8
  br label %45

45:                                               ; preds = %38, %42, %19
  %.1 = phi i32 [ %31, %38 ], [ %44, %42 ], [ %31, %19 ]
  ret i32 %.1
}